((dp0
S'arm_dbg_args'
p1
S'-via:"C:\\Users\\will\\Documents\\UtterSpeech\\marmalade\\icu\\common\\build_common_vc10\\common_vc10_arm_debug.via" -qemu'
p2
sS'game-icf'
p3
S''
p4
sS'dist'
p5
NsS'module_path_append'
p6
NsS'global_path'
p7
S'c:\\users\\will\\documents\\utterspeech\\marmalade\\icu'
p8
sS'system_path'
p9
S'c:\\marmalade\\5.2\\s3e\\makefile_builder'
p10
sS'arm_rel_rtsm_args'
p11
S'-via:"C:\\Users\\will\\Documents\\UtterSpeech\\marmalade\\icu\\common\\build_common_vc10\\common_vc10_arm_release.via" -qemu'
p12
sS'amd64'
p13
NsS'debug'
p14
NsS'line-width'
p15
I80
sS'gcc_dbg_args'
p16
S'-via:"C:\\Users\\will\\Documents\\UtterSpeech\\marmalade\\icu\\common\\build_common_vc10\\common_vc10_gcc_debug.via" -qemu'
p17
sS'x86_dbg_exe'
p18
S'c:/marmalade/5.2/s3e\\win32\\s3e_simulator_debug.exe'
p19
sS'disable-runtime-checks'
p20
NsS'no-make'
p21
NsS'optimise-size'
p22
NsS'output-name-debug'
p23
g4
sS'arm-fpu'
p24
g4
sS'psp'
p25
NsS'proj_name'
p26
S'common_vc10'
p27
sS'rvct-version'
p28
S'none'
p29
sS'compiler'
p30
g4
sS'execute'
p31
NsS'compile-static'
p32
NsS'msvc-project'
p33
I01
sS'buildenv'
p34
g4
sS'release'
p35
NsS'module_path'
p36
NsS'using_perforce'
p37
I00
sS'shared-arm-lib'
p38
NsS'arm-cpu'
p39
g4
sS'compile-thumb'
p40
NsS'no-ide'
p41
NsS'msvc-version'
p42
S'6.0'
p43
sS'arm'
p44
NsS'builddir'
p45
g4
sS'compile-debug-as-release'
p46
I0
sS'brief'
p47
NsS'dll'
p48
NsS'version'
p49
NsS'ccache'
p50
I0
sS'offline'
p51
NsS'ios-version'
p52
g4
sS'quick'
p53
NsS'gcc_rel_rtsm_args'
p54
S'-via:"C:\\Users\\will\\Documents\\UtterSpeech\\marmalade\\icu\\common\\build_common_vc10\\common_vc10_gcc_release.via" -qemu'
p55
sS'done_defaults'
p56
I1
sS's3e-data-dir'
p57
g4
sS'enable-exceptions'
p58
NsS'osx-dll'
p59
NsS'extension'
p60
g4
sS'no-vc6'
p61
NsS'non-interactive'
p62
NsS'win32-console'
p63
NsS'nds'
p64
NsS'dist-format'
p65
g4
sS's3e-force-arch'
p66
NsS'dump_defines'
p67
NsS'verbose'
p68
I1
sS'psp-minis'
p69
NsS'gcc-version'
p70
g4
sS'x86_dbg_args'
p71
S'-via:"C:\\Users\\will\\Documents\\UtterSpeech\\marmalade\\icu\\common\\build_common_vc10\\common_vc10_debug.via"'
p72
sS'arm-debugger'
p73
g4
sS'use_temp_extension'
p74
NsS'log'
p75
NsS'no-strip'
p76
NsS'rebuild'
p77
NsS'win32-simulator-dll'
p78
NsS'strict'
p79
NsS'mips_dbg_args'
p80
S'../../tools/DeployTool/DeployTool.exe --dir "C:\\Users\\will\\Documents\\UtterSpeech\\marmalade\\icu\\common\\build_common_vc10"'
p81
sS'enable-global-path'
p82
NsS'iphone'
p83
NsS'dist-dir'
p84
g4
sS'jflags'
p85
NsS'external-compiler'
p86
NsS'no-distcc'
p87
NsS'preinclude'
p88
NsS'using_sdk'
p89
I01
sS'nologo'
p90
NsS'warn-level'
p91
I2
sS'mips_dbg_exe'
p92
S'c:\\marmalade\\5.2\\s3e\\makefile_builder\\tool_launcher.exe'
p93
sS'mkb_in'
p94
S'C:/Users/will/Documents/UtterSpeech/marmalade/icu/common/common.mkb'
p95
sS'arm_dbg_exe'
p96
S'c:/marmalade/5.2/s3e\\bin\\armdebug.exe'
p97
sS'list-targets'
p98
NsS'arm_rel_exe'
p99
g93
sS'arm_rel_args'
p100
g81
sS'distcc'
p101
NsS'default-buildenv'
p102
S'vc10'
p103
sS'x86_rel_exe'
p104
g19
sS'preprocess-java'
p105
NsS'mips_rel_args'
p106
g81
sS'defines'
p107
NsS'lib'
p108
I1
sS'global_argv'
p109
(lp110
S'C:\\Marmalade\\5.2\\s3e\\makefile_builder\\mkb.py'
p111
aS'C:/Users/will/Documents/UtterSpeech/marmalade/icu/common/common.mkb'
p112
aS'--default-buildenv=vc10'
p113
aS'--msvc-project'
p114
asS'make'
p115
NsS'optimise-speed'
p116
NsS'internal'
p117
NsS'enable-stdinc'
p118
NsS'deploy-only'
p119
NsS'x86'
p120
NsS'deploy'
p121
g4
sS'x86_run_exe'
p122
S'c:/marmalade/5.2/s3e\\win32\\s3e_console.exe'
p123
sS'x86_rel_args'
p124
S'-via:"C:\\Users\\will\\Documents\\UtterSpeech\\marmalade\\icu\\common\\build_common_vc10\\common_vc10_release.via"'
p125
sS'gcc_rel_args'
p126
g81
sS'mips'
p127
NsS'incredibuild'
p128
NsS'strict-compile'
p129
NsS'use-auto-subdirs'
p130
NsS'mips_rel_exe'
p131
g93
sS'app-icf'
p132
g4
sS'deployargs'
p133
NsS'mkf_in'
p134
(lp135
S'c:\\users\\will\\documents\\utterspeech\\marmalade\\icu\\common\\common_build.mkf'
p136
asS'strict-mkb'
p137
NsS'executeargs'
p138
NsS'clean'
p139
NsS'no-asm'
p140
NsS'output-name'
p141
g4
sS'no-modules'
p142
NsS'find_define'
p143
g4
s(dp144
S'c:\\marmalade\\5.2\\s3e\\makefile_builder\\templates\\win32_dsw.pyc'
p145
F1322237094.0
sS'c:\\marmalade\\5.2\\s3e\\makefile_builder\\mkb_util.pyc'
p146
F1322237094.0
sS'c:\\marmalade\\5.2\\s3e\\makefile_builder\\plugins\\xcode4_schememanagement.py'
p147
F1322230346.0
sS'c:\\marmalade\\5.2\\s3e\\makefile_builder\\plugins\\VisualStudioEmitter.pyc'
p148
F1322237094.0
sS'c:\\marmalade\\5.2\\s3e\\makefile_builder\\templates\\xcode4_DeployTool.xcscheme'
p149
F1322230346.0
sS'c:\\marmalade\\5.2\\s3e\\makefile_builder\\templates\\linker_script'
p150
F1322230346.0
sS'c:\\marmalade\\5.2\\s3e\\makefile_builder\\mkb_parser.pyc'
p151
F1322237094.0
sS'c:\\marmalade\\5.2\\s3e\\makefile_builder\\docs\\parse_options.pyc'
p152
F1322237094.0
sS'c:\\marmalade\\5.2\\s3e\\makefile_builder\\plugins\\s3e_vc6.pyc'
p153
F1322237094.0
sS'c:\\marmalade\\5.2\\s3e\\makefile_builder\\docs\\deprecated.defines.txt'
p154
F1322230346.0
sS'c:\\marmalade\\5.2\\s3e\\makefile_builder\\config.txt'
p155
F1327403723.1726511
sS'c:\\marmalade\\5.2\\s3e\\makefile_builder\\templates\\win32_sln.pyc'
p156
F1322237094.0
sS'c:\\marmalade\\5.2\\s3e\\makefile_builder\\templates\\template.suo'
p157
F1322230346.0
sS'c:\\marmalade\\5.2\\s3e\\makefile_builder\\plugins\\vc6_utils.pyc'
p158
F1322237094.0
sS'c:\\marmalade\\5.2\\s3e\\makefile_builder\\templates\\Info.plist'
p159
F1322230346.0
sS'c:\\marmalade\\5.2\\s3e\\makefile_builder\\mkb_main.pyc'
p160
F1322237094.0
sS'c:\\marmalade\\5.2\\s3e\\makefile_builder\\docs\\deprecated.options.txt'
p161
F1322230346.0
sS'c:\\marmalade\\5.2\\s3e\\makefile_builder\\templates\\rvct_linker_script'
p162
F1322230346.0
sS'c:\\marmalade\\5.2\\s3e\\makefile_builder\\plugins\\linux_scons.pyc'
p163
F1322237094.0
sS'c:\\marmalade\\5.2\\s3e\\makefile_builder\\plugins\\java.pyc'
p164
F1322237094.0
sS'c:\\marmalade\\5.2\\s3e\\makefile_builder\\docs\\mkb.defines.txt'
p165
F1322230346.0
sS'c:\\marmalade\\5.2\\s3e\\makefile_builder\\templates\\mips_linker_script'
p166
F1322230346.0
sS'c:\\marmalade\\5.2\\s3e\\makefile_builder\\templates\\vc6_opt.pyc'
p167
F1322237094.0
sS'c:\\marmalade\\5.2\\s3e\\makefile_builder\\templates'
p168
F1327403436.6988673
sS'c:\\marmalade\\5.2\\s3e\\makefile_builder\\templates\\xcode4.xcscheme'
p169
F1322230346.0
sS'c:\\marmalade\\5.2\\s3e\\makefile_builder\\templates\\MainWindow.xib'
p170
F1322230346.0
sS'c:\\marmalade\\5.2\\s3e\\makefile_builder\\plugins\\MakeEmitter.pyc'
p171
F1322237094.0
sS'c:\\marmalade\\5.2\\s3e\\makefile_builder\\templates\\win32_vcxproj.pyc'
p172
F1322237094.0
sS'c:\\marmalade\\5.2\\s3e\\makefile_builder\\templates\\win32_dsp.pyc'
p173
F1322237094.0
sS'c:\\marmalade\\5.2\\s3e\\makefile_builder\\plugins\\s3e_xcode.pyc'
p174
F1327404490.2925613
sS'c:\\marmalade\\5.2\\s3e\\makefile_builder\\extensions\\make_dist.py'
p175
F1322230346.0
sS'c:\\marmalade\\5.2\\s3e\\makefile_builder\\templates\\make.py'
p176
F1322230346.0
sS'c:\\marmalade\\5.2\\s3e\\makefile_builder\\docs\\options.txt'
p177
F1322230346.0
sS'c:\\marmalade\\5.2\\s3e\\makefile_builder\\plugins\\s3e_xcode.py'
p178
F1322230346.0
sS'c:\\marmalade\\5.2\\s3e\\makefile_builder\\mkb.py'
p179
F1328130415.5234749
sS'c:\\marmalade\\5.2\\s3e\\makefile_builder\\templates\\qmake_user.py'
p180
F1322230346.0
sS'c:\\marmalade\\5.2\\s3e\\makefile_builder\\plugins\\XcodeEmitter.pyc'
p181
F1327404490.2375581
sS'c:\\marmalade\\5.2\\s3e\\makefile_builder\\tool_launcher.exe'
p182
F1322231326.0
sS'c:\\marmalade\\5.2\\s3e\\makefile_builder\\plugins\\xcode4_schememanagement.pyc'
p183
F1327404490.2405584
sS'c:\\marmalade\\5.2\\s3e\\makefile_builder\\plugins\\s3e_qmake.py'
p184
F1322230346.0
sS'c:\\marmalade\\5.2\\s3e\\makefile_builder\\plugins\\win32_vc6.pyc'
p185
F1322237094.0
sS'c:\\marmalade\\5.2\\s3e\\makefile_builder\\templates\\win32_vcxproj_filters.pyc'
p186
F1322237094.0
sS'c:\\marmalade\\5.2\\s3e\\makefile_builder\\templates\\vc7_suo.pyc'
p187
F1322237094.0
sS'c:\\marmalade\\5.2\\s3e\\makefile_builder\\docs'
p188
F1327403436.7188675
sS'c:\\marmalade\\5.2\\s3e\\makefile_builder\\plugins\\iphone.pyc'
p189
F1322237094.0
sS'c:\\marmalade\\5.2\\s3e\\makefile_builder\\plugins\\deploy.pyc'
p190
F1322237094.0
sS'c:\\marmalade\\5.2\\s3e\\makefile_builder\\templates\\qmake.py'
p191
F1322230346.0
sS'c:\\marmalade\\5.2\\s3e\\makefile_builder\\mkb_launcher.exe'
p192
F1322231324.0
sS'c:\\marmalade\\5.2\\s3e\\makefile_builder\\templates\\vc8_user.pyc'
p193
F1322237094.0
sS'c:\\marmalade\\5.2\\s3e\\makefile_builder\\extensions'
p194
F1327403436.6988673
sS'c:\\marmalade\\5.2\\s3e\\makefile_builder\\plugins\\S3EEmitter.pyc'
p195
F1322237094.0
sS'c:\\marmalade\\5.2\\s3e\\makefile_builder\\plugins\\Emitter.pyc'
p196
F1322237094.0
sS'c:\\marmalade\\5.2\\s3e\\makefile_builder\\plugins\\XcodeEmitter.py'
p197
F1322230346.0
sS'c:\\marmalade\\5.2\\s3e\\makefile_builder\\templates\\xcode.py'
p198
F1322230346.0
sS'c:\\marmalade\\5.2\\s3e\\makefile_builder\\plugins\\s3e_scons.pyc'
p199
F1322237094.0
sS'c:\\marmalade\\5.2\\s3e\\makefile_builder\\templates\\vc10_user.pyc'
p200
F1322237094.0
sS'c:\\marmalade\\5.2\\s3e\\makefile_builder\\plugins'
p201
F1327404490.2925613
sS'c:\\marmalade\\5.2\\s3e\\makefile_builder\\plugins\\SConsEmitter.pyc'
p202
F1322237094.0
sS'c:\\marmalade\\5.2\\s3e\\makefile_builder\\templates\\xcode_pbxuser.py'
p203
F1322230346.0
sS'c:\\marmalade\\5.2\\s3e\\makefile_builder\\plugins\\s3e_make.pyc'
p204
F1322237094.0
sS'c:\\marmalade\\5.2\\s3e\\makefile_builder\\templates\\win32_vcproj.pyc'
p205
F1322237094.0
sS'c:\\marmalade\\5.2\\s3e\\makefile_builder\\templates\\gdb_start.txt'
p206
F1322230346.0
sS'c:\\marmalade\\5.2\\s3e\\makefile_builder\\plugins\\vc7_utils.pyc'
p207
F1322237094.0
sS'c:\\marmalade\\5.2\\s3e\\makefile_builder\\templates\\scons.pyc'
p208
F1322237094.0
sS'c:\\marmalade\\5.2\\s3e\\makefile_builder\\plugins\\null.pyc'
p209
F1322237094.0
sS'c:\\marmalade\\5.2\\s3e\\makefile_builder\\templates\\template.opt'
p210
F1322230346.0
sS'c:\\marmalade\\5.2\\s3e\\makefile_builder\\plugins\\s3e_qmake.pyc'
p211
F1327404490.251559
sS'c:\\marmalade\\5.2\\s3e\\makefile_builder\\docs\\deployment_options.txt'
p212
F1322230346.0
sccopy_reg
_reconstructor
p213
(cmkb_main
MkbFile
p214
c__builtin__
object
p215
Ntp216
Rp217
(dp218
g5
(lp219
sS'target_name'
p220
g213
(cmkb_main
Library
p221
g215
Ntp222
Rp223
(dp224
S'name'
p225
S'../common'
p226
sS'expand_name'
p227
I01
sS'include_spec_rvct_objs'
p228
(lp229
sS'include_all_objs'
p230
I00
sS'share_arm'
p231
NsS'arch'
p232
NsS'nodebug'
p233
I00
sg30
NsbsS'current_file'
p234
g95
sS'package_path'
p235
(lp236
sS'post_build'
p237
(lp238
sS'librarys'
p239
(lp240
sS'library_paths'
p241
(lp242
sS'macros'
p243
(dp244
S'U_ATTRIBUTE_DEPRECATED'
p245
S' '
p246
sS'IW_PLATFORM_S3E'
p247
NsS'I3D_PLATFORM_S3E'
p248
NsS'NDEBUG'
p249
NsS'S3E_INCLUDE_LEGACY'
p250
NsS'IW_SDK'
p251
NsS'__S3E__'
p252
NsS'_CRT_SECURE_NO_DEPRECATE'
p253
NsS'U_COMMON_IMPLEMENTATION'
p254
NsS'IW_APP_NAME'
p255
S'"common"'
p256
sS'U_STATIC_IMPLEMENTATION'
p257
NsS'I3D_OS_S3E'
p258
NsS'IW_APP_VERSION'
p259
S'"1.0"'
p260
sS'IW_DEBUG'
p261
NsS'IW_MKF_COMMON_BUILD'
p262
NssS'done_warnings'
p263
(dp264
sS'subprojects'
p265
(dp266
g136
S'common_build'
p267
ssS'deployments'
p268
(dp269
S'Default'
p270
g213
(cmkb_main
Deployment
p271
g215
Ntp272
Rp273
(dp274
S'got_version'
p275
I0
sS'assets'
p276
g270
sS'mkb'
p277
g217
sS'target'
p278
Nsg232
(lp279
sS'options'
p280
(dp281
S'game-icf'
p282
NsS'iphone-icon-high-res'
p283
NsS'win32-pref-windowposy'
p284
NsS'win32-pref-windowposx'
p285
NsS'bada-appsecret'
p286
NsS'playbook-author'
p287
NsS'winmobile-icon32'
p288
NsS'linux-ext-lib'
p289
(lp290
sS'target-folder'
p291
NsS'ngi-splashscreen-port'
p292
NsS'psp-discversion'
p293
NsS'iphone-backgroundmode-audio'
p294
NsS'lgtv-use-drm'
p295
NsS'nds-bannertitle-sp'
p296
NsS'symbian-platsecflags'
p297
NsS'psp-producer'
p298
NsS'iphone-provisioning-profile'
p299
NsS'copyright'
p300
NsS'winmobile-png45'
p301
NsS'symbian-cert'
p302
NsS'nds-bannertitle-hn'
p303
NsS'uiq3-icon1-mask'
p304
NsS'brew-depends'
p305
NsS'winmobile-png60'
p306
NsS'winmobile-nouninstall'
p307
NsS'brew-mif'
p308
NsS'android-icon-hdpi'
p309
NsS'iphone-ipad-only'
p310
NsS'iphone-bundle-url-name'
p311
NsS'android-aliasname'
p312
NsS'psp-dlgmanual'
p313
NsS'long-caption'
p314
NsS'android-pkgname'
p315
NsS'webos-memory'
p316
NsS'brew-uid'
p317
NsS'android-keypass'
p318
NsS'ngi-uid'
p319
NsS'symbian-locationsupport'
p320
NsS'iphone-signing-host'
p321
NsS'ngi-install-sisx-only'
p322
NsS'nds-bannertitle-jp'
p323
NsS'name'
p324
NsS'symbian-icon1-format'
p325
NsS'uiq3-uid'
p326
NsS'psp-dlgcontentid'
p327
NsS'auto-derbh'
p328
NsS'arch'
p329
NsS'bada-use-partner-privileges'
p330
NsS'nds-bannertitle-it'
p331
NsS'playbook-authorid'
p332
NsS'psp-copyright'
p333
NsS'ngi-achievements'
p334
NsS'splashscreen'
p335
NsS'symbian-soundrecordsupport'
p336
NsS'symbian-icon2-format'
p337
NsS'iphone-icon-settings-high-res'
p338
NsS'android-manifest'
p339
NsS'ngi-splash-producer'
p340
NsS'winmobile-icon16'
p341
NsS's3e-compression'
p342
NsS'ngi-game-extras'
p343
NsS'iphone-link-opts'
p344
(lp345
sS'iphone-region'
p346
NsS'uiq3-icon3-mask'
p347
NsS'winmobile-start-menu-folder'
p348
NsS'brew-clsid'
p349
NsS'brew-encoding'
p350
NsS'symbian-icon1'
p351
NsS'symbian-icon2'
p352
NsS'ngi-icon1'
p353
NsS'psp-parentallevel'
p354
NsS'ngi-icon3'
p355
NsS'ngi-icon2'
p356
NsS'ngi-icon4'
p357
NsS'osx-ext-dll'
p358
(lp359
sS'version'
p360
NsS'bada-manifest'
p361
NsS'provider'
p362
NsS'iphone-prerendered-icon'
p363
NsS'iphone-appid'
p364
NsS'playbook-keystore'
p365
NsS'nds-initialcode'
p366
NsS'ngi-splashscreen-land'
p367
NsS'ngi-key'
p368
NsS'winmobile-icon64'
p369
NsS'iphone-persistent-wifi'
p370
NsS'symbian7-uid'
p371
NsS'winmobile-setup-dll'
p372
NsS'symbian-osexecsupport'
p373
NsS'android-install-location'
p374
NsS'olddeploytoolstyle'
p375
NsS'nds-privatesavedatasize'
p376
NsS'symbian9-uid'
p377
NsS'nds-bannertitle-cn'
p378
NsS'winmobile-trace-file'
p379
NsS'playbook-storepass'
p380
NsS'ngi-no-assets'
p381
NsS'android-icon-ldpi'
p382
NsS'psp-appversion'
p383
NsS'networking'
p384
NsS'winmobile-install-folder'
p385
NsS'ngi-metadata'
p386
NsS'android-external-res'
p387
(lp388
sS'manufacturer'
p389
NsS'android-icon-gallery'
p390
NsS'bada-signed'
p391
NsS'nds-publicsavedatasize'
p392
NsS'psp-snd0'
p393
NsS'iphone-extra-sections'
p394
NsS'iphone-nosign'
p395
NsS'caption'
p396
NsS'android-icon'
p397
NsS'android-external-jars'
p398
(lp399
sS'android-storepass'
p400
NsS'iphone-info-plist'
p401
NsS'ngi-arena-config'
p402
NsS'android-extra-manifest'
p403
(lp404
sS'iphone-icon-ipad-search'
p405
NsS'android-custom-activity'
p406
NsS'version-minor'
p407
NsS'iphone-icon-ipad'
p408
NsS'bada-appid'
p409
NsS'meego-desc'
p410
NsS'iphone-link-libdirs'
p411
(lp412
sS'iphone-icon-large'
p413
NsS'symbian-maxheapsize'
p414
NsS'embed-icf'
p415
NsS'psp-titlename'
p416
NsS'win-icon'
p417
NsS'symbian-icon1-mask'
p418
NsS'nds-makercode'
p419
NsS'priv-sign-key'
p420
NsS'webos-appinfo'
p421
NsS'symbian-cert-key'
p422
NsS'winmobile-ampd-part-number'
p423
NsS'webos-appid'
p424
NsS'android-icon-nonstandard'
p425
NsS'android-extra-application-manifest'
p426
(lp427
sS'iphone-icon-settings'
p428
NsS'ngi-gameinfo'
p429
NsS'osx-icon'
p430
NsS'symbian-disable-ecompxl'
p431
NsS'splashscreen-auto-onblack'
p432
NsS'icon'
p433
NsS'nds-romheadertemplate'
p434
NsS'webos-icon'
p435
NsS'ngi-arena-rss'
p436
NsS'nds-bannertitle-en'
p437
NsS'win32-ext-dll'
p438
(lp439
sS'psp-dlgicon0'
p440
NsS'psp-discid'
p441
NsS'winmobile-icon48'
p442
NsS'android-unsigned'
p443
NsS'nds-titlename'
p444
NsS'android-so'
p445
(lp446
sS'android-supports-gl-texture'
p447
(lp448
sS'bada-splash'
p449
NsS'version-revision'
p450
NsS'android-icon-mdpi'
p451
NsS'android-keystore'
p452
NsS'uiq3-icon2-format'
p453
NsS'version-string'
p454
NsS'winmobile-png90'
p455
NsS'iphone-disable-ipad'
p456
NsS'uiq3-icon1-format'
p457
NsS'iphone-bundle-url-schemes'
p458
NsS'nds-icon'
p459
NsS'ngi-arena-locales'
p460
NsS'ngi-filemanager-lib'
p461
NsS'meego-provider-contact'
p462
NsS'android_extra_strings'
p463
NsS'playbook-icon'
p464
NsS'uid'
p465
NsS'iphone-signing-identity'
p466
NsS'brew-icon-medium'
p467
NsS'brew-icon-large'
p468
NsS'pkguid-as-uid'
p469
NsS'symbian-icon1-mask-black'
p470
NsS'uiq3-icon2'
p471
NsS'pub-sign-key'
p472
NsS'nds-bannertitle-fr'
p473
NsS'win32-pref-windowtitle'
p474
NsS'symbian8-uid'
p475
NsS'symbian-icon-svg'
p476
NsS'brew-priviledges'
p477
NsS'ngi-cert'
p478
NsS'brew-icon-small'
p479
NsS'psp-dlgpic2'
p480
NsS'bada-icon'
p481
NsS'psp-dlgpic0'
p482
NsS'ngi-gcce-loader'
p483
NsS'psp-pic0'
p484
NsS'psp-pic1'
p485
NsS'iphone-icon'
p486
NsS'psp-icon0'
p487
NsS'psp-icon1'
p488
NsS'uiq3-icon3-format'
p489
NsS'version-major'
p490
NsS'iphone_bundle_localisations'
p491
NsS'winmobile-icon'
p492
NsS'symbian-keypwd'
p493
NsS'iphone-no-splash'
p494
NsS'playbook-access-shared'
p495
NsS'psp-dlghealthwarning'
p496
NsS'iphone-link-libs'
p497
(lp498
sS'ngi-filemanager-dll'
p499
NsS'iphone-splash'
p500
NsS'nds-bannertitle-ge'
p501
NsS'android_icon_gallery'
p502
NsS'iphone-app-fonts'
p503
NsS'symbian-icon2-mask'
p504
NsS'iphone-sign-for-distribution'
p505
NsS'psp-dlgprotectdocument'
p506
NsS'winmobile-cab-compress'
p507
NsS'uiq3-icon3'
p508
NsS'uiq3-icon1'
p509
NsS'itunes-artwork'
p510
NsS'win32-icon'
p511
NsS'assets'
p512
NsS'symbian-key'
p513
NsS'app-icf'
p514
NsS'ngi-arena-rsc'
p515
NsS'brew-compress-loader'
p516
NsS'uiq3-icon2-mask'
p517
NsS'symbian-icon2-mask-black'
p518
NsS'android-extra-strings'
p519
NsS'symbian-run-on-install'
p520
NsS'iphone-bundle-localisations'
p521
Nssg225
g270
sbssS'platform'
p522
S'S3E'
p523
sg49
S'1.0'
p524
sS'arcade_platform'
p525
g4
sS'source_groups_tree'
p526
(dp527
S'(common_build)'
p528
(dp529
S'c:/users/will/documents/utterspeech/marmalade/icu/common/source/uchar.c'
p530
(lp531
I1
a(dp532
asS'c:/users/will/documents/utterspeech/marmalade/icu/common/source/ucnvsel.cpp'
p533
(lp534
I1
ag532
asS'c:/users/will/documents/utterspeech/marmalade/icu/common/source/loclikely.cpp'
p535
(lp536
I1
ag532
asS'c:/users/will/documents/utterspeech/marmalade/icu/common/source/ucnvscsu.c'
p537
(lp538
I1
ag532
asS'c:/users/will/documents/utterspeech/marmalade/icu/common/source/ubidiln.c'
p539
(lp540
I1
ag532
asS'c:/users/will/documents/utterspeech/marmalade/icu/common/source/schriter.cpp'
p541
(lp542
I1
ag532
asS'c:/users/will/documents/utterspeech/marmalade/icu/common/source/uresdata.c'
p543
(lp544
I1
ag532
asS'c:/users/will/documents/utterspeech/marmalade/icu/common/source/chariter.cpp'
p545
(lp546
I1
ag532
asS'c:/users/will/documents/utterspeech/marmalade/icu/common/source/resbund_cnv.cpp'
p547
(lp548
I1
ag532
asS'c:/users/will/documents/utterspeech/marmalade/icu/common/source/ucharstriebuilder.cpp'
p549
(lp550
I1
ag532
asS'c:/users/will/documents/utterspeech/marmalade/icu/common/source/udataswp.c'
p551
(lp552
I1
ag532
asS'c:/users/will/documents/utterspeech/marmalade/icu/common/source/unisetspan.cpp'
p553
(lp554
I1
ag532
asS'c:/users/will/documents/utterspeech/marmalade/icu/common/source/uarrsort.c'
p555
(lp556
I1
ag532
asS'c:/users/will/documents/utterspeech/marmalade/icu/common/source/uobject.cpp'
p557
(lp558
I1
ag532
asS'c:/users/will/documents/utterspeech/marmalade/icu/common/source/ucnvmbcs.c'
p559
(lp560
I1
ag532
asS'c:/users/will/documents/utterspeech/marmalade/icu/common/source/cwchar.c'
p561
(lp562
I1
ag532
asS'c:/users/will/documents/utterspeech/marmalade/icu/common/source/utf_impl.c'
p563
(lp564
I1
ag532
asS'c:/users/will/documents/utterspeech/marmalade/icu/common/source/punycode.c'
p565
(lp566
I1
ag532
asS'c:/users/will/documents/utterspeech/marmalade/icu/common/source/ubrk.cpp'
p567
(lp568
I1
ag532
asS'c:/users/will/documents/utterspeech/marmalade/icu/common/source/parsepos.cpp'
p569
(lp570
I1
ag532
asS'c:/users/will/documents/utterspeech/marmalade/icu/common/source/ushape.c'
p571
(lp572
I1
ag532
asS'c:/users/will/documents/utterspeech/marmalade/icu/common/source/uiter.cpp'
p573
(lp574
I1
ag532
asS'c:/users/will/documents/utterspeech/marmalade/icu/common/source/uscript.c'
p575
(lp576
I1
ag532
asS'c:/users/will/documents/utterspeech/marmalade/icu/common/source/caniter.cpp'
p577
(lp578
I1
ag532
asS'c:/users/will/documents/utterspeech/marmalade/icu/common/source/utrie2.cpp'
p579
(lp580
I1
ag532
asS'c:/users/will/documents/utterspeech/marmalade/icu/common/source/ucase.c'
p581
(lp582
I1
ag532
asS'c:/users/will/documents/utterspeech/marmalade/icu/common/source/locresdata.cpp'
p583
(lp584
I1
ag532
asS'c:/users/will/documents/utterspeech/marmalade/icu/common/source/bmpset.cpp'
p585
(lp586
I1
ag532
asS'c:/users/will/documents/utterspeech/marmalade/icu/common/source/resbund.cpp'
p587
(lp588
I1
ag532
asS'c:/users/will/documents/utterspeech/marmalade/icu/common/source/rbbinode.cpp'
p589
(lp590
I1
ag532
asS'c:/users/will/documents/utterspeech/marmalade/icu/common/source/propsvec.c'
p591
(lp592
I1
ag532
asS'c:/users/will/documents/utterspeech/marmalade/icu/common/source/normalizer2impl.cpp'
p593
(lp594
I1
ag532
asS'c:/users/will/documents/utterspeech/marmalade/icu/common/source/ures_cnv.c'
p595
(lp596
I1
ag532
asS'c:/users/will/documents/utterspeech/marmalade/icu/common/source/ucasemap.c'
p597
(lp598
I1
ag532
asS'c:/users/will/documents/utterspeech/marmalade/icu/common/source/uhash_us.cpp'
p599
(lp600
I1
ag532
asS'c:/users/will/documents/utterspeech/marmalade/icu/common/source/uidna.cpp'
p601
(lp602
I1
ag532
asS'c:/users/will/documents/utterspeech/marmalade/icu/common/source/rbbidata.cpp'
p603
(lp604
I1
ag532
asS'c:/users/will/documents/utterspeech/marmalade/icu/common/source/uvectr32.cpp'
p605
(lp606
I1
ag532
asS'c:/users/will/documents/utterspeech/marmalade/icu/common/source/rbbisetb.cpp'
p607
(lp608
I1
ag532
asS'c:/users/will/documents/utterspeech/marmalade/icu/common/source/locmap.c'
p609
(lp610
I1
ag532
asS'c:/users/will/documents/utterspeech/marmalade/icu/common/source/ucnv_ext.c'
p611
(lp612
I1
ag532
asS'c:/users/will/documents/utterspeech/marmalade/icu/common/source/normlzr.cpp'
p613
(lp614
I1
ag532
asS'c:/users/will/documents/utterspeech/marmalade/icu/common/source/ucnv_ct.c'
p615
(lp616
I1
ag532
asS'c:/users/will/documents/utterspeech/marmalade/icu/common/source/ucln_cmn.c'
p617
(lp618
I1
ag532
asS'c:/users/will/documents/utterspeech/marmalade/icu/common/source/uniset.cpp'
p619
(lp620
I1
ag532
asS'c:/users/will/documents/utterspeech/marmalade/icu/common/source/ucnv_u32.c'
p621
(lp622
I1
ag532
asS'c:/users/will/documents/utterspeech/marmalade/icu/common/source/servnotf.cpp'
p623
(lp624
I1
ag532
asS'c:/users/will/documents/utterspeech/marmalade/icu/common/source/icudataver.c'
p625
(lp626
I1
ag532
asS'c:/users/will/documents/utterspeech/marmalade/icu/common/source/dictbe.cpp'
p627
(lp628
I1
ag532
asS'c:/users/will/documents/utterspeech/marmalade/icu/common/source/ucnv_u8.c'
p629
(lp630
I1
ag532
asS'c:/users/will/documents/utterspeech/marmalade/icu/common/source/unistr_props.cpp'
p631
(lp632
I1
ag532
asS'c:/users/will/documents/utterspeech/marmalade/icu/common/source/uinvchar.c'
p633
(lp634
I1
ag532
asS'c:/users/will/documents/utterspeech/marmalade/icu/common/source/patternprops.cpp'
p635
(lp636
I1
ag532
asS'c:/users/will/documents/utterspeech/marmalade/icu/common/source/servslkf.cpp'
p637
(lp638
I1
ag532
asS'c:/users/will/documents/utterspeech/marmalade/icu/common/source/locid.cpp'
p639
(lp640
I1
ag532
asS'c:/users/will/documents/utterspeech/marmalade/icu/common/source/locutil.cpp'
p641
(lp642
I1
ag532
asS'c:/users/will/documents/utterspeech/marmalade/icu/common/source/unormcmp.cpp'
p643
(lp644
I1
ag532
asS'c:/users/will/documents/utterspeech/marmalade/icu/common/source/dtintrv.cpp'
p645
(lp646
I1
ag532
asS'c:/users/will/documents/utterspeech/marmalade/icu/common/source/brkeng.cpp'
p647
(lp648
I1
ag532
asS'c:/users/will/documents/utterspeech/marmalade/icu/common/source/ucnv_set.c'
p649
(lp650
I1
ag532
asS'c:/users/will/documents/utterspeech/marmalade/icu/common/source/ustrfmt.c'
p651
(lp652
I1
ag532
asS'c:/users/will/documents/utterspeech/marmalade/icu/common/source/cstring.c'
p653
(lp654
I1
ag532
asS'c:/users/will/documents/utterspeech/marmalade/icu/common/common_build.mkf'
p655
(lp656
I1
a(dp657
asS'c:/users/will/documents/utterspeech/marmalade/icu/common/source/servlkf.cpp'
p658
(lp659
I1
ag532
asS'c:/users/will/documents/utterspeech/marmalade/icu/common/source/ulist.c'
p660
(lp661
I1
ag532
asS'c:/users/will/documents/utterspeech/marmalade/icu/common/source/rbbirb.cpp'
p662
(lp663
I1
ag532
asS'c:/users/will/documents/utterspeech/marmalade/icu/common/source/unifilt.cpp'
p664
(lp665
I1
ag532
asS'c:/users/will/documents/utterspeech/marmalade/icu/common/source/appendable.cpp'
p666
(lp667
I1
ag532
asS'c:/users/will/documents/utterspeech/marmalade/icu/common/source/ucnv2022.c'
p668
(lp669
I1
ag532
asS'c:/users/will/documents/utterspeech/marmalade/icu/common/source/ucnvbocu.c'
p670
(lp671
I1
ag532
asS'c:/users/will/documents/utterspeech/marmalade/icu/common/source/ucnvdisp.c'
p672
(lp673
I1
ag532
asS'c:/users/will/documents/utterspeech/marmalade/icu/common/source/serv.cpp'
p674
(lp675
I1
ag532
asS'c:/users/will/documents/utterspeech/marmalade/icu/common/source/unistr_case.cpp'
p676
(lp677
I1
ag532
asS'c:/users/will/documents/utterspeech/marmalade/icu/common/source/propname.cpp'
p678
(lp679
I1
ag532
asS'c:/users/will/documents/utterspeech/marmalade/icu/common/source/unorm_it.c'
p680
(lp681
I1
ag532
asS'c:/users/will/documents/utterspeech/marmalade/icu/common/source/unifunct.cpp'
p682
(lp683
I1
ag532
asS'c:/users/will/documents/utterspeech/marmalade/icu/common/source/bytestream.cpp'
p684
(lp685
I1
ag532
asS'c:/users/will/documents/utterspeech/marmalade/icu/common/source/locavailable.cpp'
p686
(lp687
I1
ag532
asS'c:/users/will/documents/utterspeech/marmalade/icu/common/source/ustrenum.cpp'
p688
(lp689
I1
ag532
asS'c:/users/will/documents/utterspeech/marmalade/icu/common/source/ucnv_bld.c'
p690
(lp691
I1
ag532
asS'c:/users/will/documents/utterspeech/marmalade/icu/common/source/stringpiece.cpp'
p692
(lp693
I1
ag532
asS'c:/users/will/documents/utterspeech/marmalade/icu/common/source/uresbund.c'
p694
(lp695
I1
ag532
asS'c:/users/will/documents/utterspeech/marmalade/icu/common/source/ruleiter.cpp'
p696
(lp697
I1
ag532
asS'c:/users/will/documents/utterspeech/marmalade/icu/common/source/ucharstrie.cpp'
p698
(lp699
I1
ag532
asS'c:/users/will/documents/utterspeech/marmalade/icu/common/source/ucnv.c'
p700
(lp701
I1
ag532
asS'c:/users/will/documents/utterspeech/marmalade/icu/common/source/ucnv_u16.c'
p702
(lp703
I1
ag532
asS'c:/users/will/documents/utterspeech/marmalade/icu/common/source/rbbistbl.cpp'
p704
(lp705
I1
ag532
asS'c:/users/will/documents/utterspeech/marmalade/icu/common/source/putil.c'
p706
(lp707
I1
ag532
asS'c:/users/will/documents/utterspeech/marmalade/icu/common/source/utrie.c'
p708
(lp709
I1
ag532
asS'c:/users/will/documents/utterspeech/marmalade/icu/common/source/utypes.c'
p710
(lp711
I1
ag532
asS'c:/users/will/documents/utterspeech/marmalade/icu/common/source/utext.cpp'
p712
(lp713
I1
ag532
asS'c:/users/will/documents/utterspeech/marmalade/icu/common/source/unistr.cpp'
p714
(lp715
I1
ag532
asS'c:/users/will/documents/utterspeech/marmalade/icu/common/source/ustr_cnv.c'
p716
(lp717
I1
ag532
asS'c:/users/will/documents/utterspeech/marmalade/icu/common/source/uprops.cpp'
p718
(lp719
I1
ag532
asS'c:/users/will/documents/utterspeech/marmalade/icu/common/source/mutex.cpp'
p720
(lp721
I1
ag532
asS'c:/users/will/documents/utterspeech/marmalade/icu/common/source/ucnvhz.c'
p722
(lp723
I1
ag532
asS'c:/users/will/documents/utterspeech/marmalade/icu/common/source/ubidi.c'
p724
(lp725
I1
ag532
asS'c:/users/will/documents/utterspeech/marmalade/icu/common/source/servlk.cpp'
p726
(lp727
I1
ag532
asS'c:/users/will/documents/utterspeech/marmalade/icu/common/source/uset.cpp'
p728
(lp729
I1
ag532
asS'c:/users/will/documents/utterspeech/marmalade/icu/common/source/ucnv_io.c'
p730
(lp731
I1
ag532
asS'c:/users/will/documents/utterspeech/marmalade/icu/common/source/brkiter.cpp'
p732
(lp733
I1
ag532
asS'c:/users/will/documents/utterspeech/marmalade/icu/common/source/icuplug.c'
p734
(lp735
I1
ag532
asS'c:/users/will/documents/utterspeech/marmalade/icu/common/source/rbbi.cpp'
p736
(lp737
I1
ag532
asS'c:/users/will/documents/utterspeech/marmalade/icu/common/source/servls.cpp'
p738
(lp739
I1
ag532
asS'c:/users/will/documents/utterspeech/marmalade/icu/common/source/util_props.cpp'
p740
(lp741
I1
ag532
asS'c:/users/will/documents/utterspeech/marmalade/icu/common/source/bytestrie.cpp'
p742
(lp743
I1
ag532
asS'c:/users/will/documents/utterspeech/marmalade/icu/common/source/ustack.cpp'
p744
(lp745
I1
ag532
asS'c:/users/will/documents/utterspeech/marmalade/icu/common/source/ucnvisci.c'
p746
(lp747
I1
ag532
asS'c:/users/will/documents/utterspeech/marmalade/icu/common/source/errorcode.cpp'
p748
(lp749
I1
ag532
asS'c:/users/will/documents/utterspeech/marmalade/icu/common/source/locbased.cpp'
p750
(lp751
I1
ag532
asS'c:/users/will/documents/utterspeech/marmalade/icu/common/source/unorm.cpp'
p752
(lp753
I1
ag532
asS'c:/users/will/documents/utterspeech/marmalade/icu/common/source/ucol_swp.cpp'
p754
(lp755
I1
ag532
asS'c:/users/will/documents/utterspeech/marmalade/icu/common/source/rbbitblb.cpp'
p756
(lp757
I1
ag532
asS'c:/users/will/documents/utterspeech/marmalade/icu/common/source/ucnv_cnv.c'
p758
(lp759
I1
ag532
asS'c:/users/will/documents/utterspeech/marmalade/icu/common/source/usc_impl.c'
p760
(lp761
I1
ag532
asS'c:/users/will/documents/utterspeech/marmalade/icu/common/source/stringtriebuilder.cpp'
p762
(lp763
I1
ag532
asS'c:/users/will/documents/utterspeech/marmalade/icu/common/source/uvector.cpp'
p764
(lp765
I1
ag532
asS'c:/users/will/documents/utterspeech/marmalade/icu/common/source/messagepattern.cpp'
p766
(lp767
I1
ag532
asS'c:/users/will/documents/utterspeech/marmalade/icu/common/source/ustrcase.c'
p768
(lp769
I1
ag532
asS'c:/users/will/documents/utterspeech/marmalade/icu/common/source/ustring.c'
p770
(lp771
I1
ag532
asS'c:/users/will/documents/utterspeech/marmalade/icu/common/source/usetiter.cpp'
p772
(lp773
I1
ag532
asS'c:/users/will/documents/utterspeech/marmalade/icu/common/source/ucnv_err.c'
p774
(lp775
I1
ag532
asS'c:/users/will/documents/utterspeech/marmalade/icu/common/source/bytestrieiterator.cpp'
p776
(lp777
I1
ag532
asS'c:/users/will/documents/utterspeech/marmalade/icu/common/source/umapfile.c'
p778
(lp779
I1
ag532
asS'c:/users/will/documents/utterspeech/marmalade/icu/common/source/utrace.c'
p780
(lp781
I1
ag532
asS'c:/users/will/documents/utterspeech/marmalade/icu/common/source/unistr_cnv.cpp'
p782
(lp783
I1
ag532
asS'c:/users/will/documents/utterspeech/marmalade/icu/common/source/ucat.c'
p784
(lp785
I1
ag532
asS'c:/users/will/documents/utterspeech/marmalade/icu/common/source/rbbiscan.cpp'
p786
(lp787
I1
ag532
asS'c:/users/will/documents/utterspeech/marmalade/icu/common/source/uenum.c'
p788
(lp789
I1
ag532
asS'c:/users/will/documents/utterspeech/marmalade/icu/common/source/ucharstrieiterator.cpp'
p790
(lp791
I1
ag532
asS'c:/users/will/documents/utterspeech/marmalade/icu/common/source/uvectr64.cpp'
p792
(lp793
I1
ag532
asS'c:/users/will/documents/utterspeech/marmalade/icu/common/source/uchriter.cpp'
p794
(lp795
I1
ag532
asS'c:/users/will/documents/utterspeech/marmalade/icu/common/source/udatamem.c'
p796
(lp797
I1
ag532
asS'c:/users/will/documents/utterspeech/marmalade/icu/common/source/uloc.c'
p798
(lp799
I1
ag532
asS'c:/users/will/documents/utterspeech/marmalade/icu/common/source/uset_props.cpp'
p800
(lp801
I1
ag532
asS'c:/users/will/documents/utterspeech/marmalade/icu/common/source/ucnv_cb.c'
p802
(lp803
I1
ag532
asS'c:/users/will/documents/utterspeech/marmalade/icu/common/source/uhash.c'
p804
(lp805
I1
ag532
asS'c:/users/will/documents/utterspeech/marmalade/icu/common/source/ucnvlat1.c'
p806
(lp807
I1
ag532
asS'c:/users/will/documents/utterspeech/marmalade/icu/common/source/util.cpp'
p808
(lp809
I1
ag532
asS'c:/users/will/documents/utterspeech/marmalade/icu/common/source/unames.c'
p810
(lp811
I1
ag532
asS'c:/users/will/documents/utterspeech/marmalade/icu/common/source/cmemory.c'
p812
(lp813
I1
ag532
asS'c:/users/will/documents/utterspeech/marmalade/icu/common/source/servrbf.cpp'
p814
(lp815
I1
ag532
asS'c:/users/will/documents/utterspeech/marmalade/icu/common/source/wintz.c'
p816
(lp817
I1
ag532
asS'c:/users/will/documents/utterspeech/marmalade/icu/common/source/uts46.cpp'
p818
(lp819
I1
ag532
asS'c:/users/will/documents/utterspeech/marmalade/icu/common/source/ustr_wcs.c'
p820
(lp821
I1
ag532
asS'c:/users/will/documents/utterspeech/marmalade/icu/common/source/uloc_tag.c'
p822
(lp823
I1
ag532
asS'c:/users/will/documents/utterspeech/marmalade/icu/common/source/charstr.cpp'
p824
(lp825
I1
ag532
asS'c:/users/will/documents/utterspeech/marmalade/icu/common/source/uinit.c'
p826
(lp827
I1
ag532
asS'c:/users/will/documents/utterspeech/marmalade/icu/common/source/filterednormalizer2.cpp'
p828
(lp829
I1
ag532
asS'c:/users/will/documents/utterspeech/marmalade/icu/common/source/utrie2_builder.c'
p830
(lp831
I1
ag532
asS'c:/users/will/documents/utterspeech/marmalade/icu/common/source/bytestriebuilder.cpp'
p832
(lp833
I1
ag532
asS'c:/users/will/documents/utterspeech/marmalade/icu/common/source/umutex.c'
p834
(lp835
I1
ag532
asS'c:/users/will/documents/utterspeech/marmalade/icu/common/source/locdispnames.cpp'
p836
(lp837
I1
ag532
asS'c:/users/will/documents/utterspeech/marmalade/icu/common/source/ubidi_props.c'
p838
(lp839
I1
ag532
asS'c:/users/will/documents/utterspeech/marmalade/icu/common/source/normalizer2.cpp'
p840
(lp841
I1
ag532
asS'c:/users/will/documents/utterspeech/marmalade/icu/common/source/ubidiwrt.c'
p842
(lp843
I1
ag532
asS'c:/users/will/documents/utterspeech/marmalade/icu/common/source/udata.cpp'
p844
(lp845
I1
ag532
asS'c:/users/will/documents/utterspeech/marmalade/icu/common/source/triedict.cpp'
p846
(lp847
I1
ag532
asS'c:/users/will/documents/utterspeech/marmalade/icu/common/source/ucnv_u7.c'
p848
(lp849
I1
ag532
asS'c:/users/will/documents/utterspeech/marmalade/icu/common/source/uniset_props.cpp'
p850
(lp851
I1
ag532
asS'c:/users/will/documents/utterspeech/marmalade/icu/common/source/ustrtrns.c'
p852
(lp853
I1
ag532
asS'c:/users/will/documents/utterspeech/marmalade/icu/common/source/ucmndata.c'
p854
(lp855
I1
ag532
asS'c:/users/will/documents/utterspeech/marmalade/icu/common/source/usprep.cpp'
p856
(lp857
I1
ag532
asS'c:/users/will/documents/utterspeech/marmalade/icu/common/source/ucnv_lmb.c'
p858
(lp859
I1
ag532
asS'c:/users/will/documents/utterspeech/marmalade/icu/common/source/umath.c'
p860
(lp861
I1
ag532
asssS'files'
p862
(dp863
S'iterator'
p864
(S'c:/marmalade/5.2/s3e/h/std/c++/iterator'
p865
(lp866
S"'Marmalade System (S3E)'"
p867
aS'stdc headers'
p868
aS'c++'
p869
a(dp870
tp871
sS'pthread_alloc'
p872
(S'c:/marmalade/5.2/s3e/h/std/c++/pthread_alloc'
p873
g866
g870
tp874
sS's3e.h'
p875
(S'c:/marmalade/5.2/s3e/h/s3e.h'
p876
(lp877
g867
ag870
tp878
sS'errno.h'
p879
(S'c:/marmalade/5.2/s3e/h/std/errno.h'
p880
(lp881
g867
aS'stdc headers'
p882
ag870
tp883
sS'uniset_props.cpp'
p884
(g850
(lp885
g528
ag532
tp886
sS'stdio_streambuf'
p887
(S'c:/marmalade/5.2/s3e/h/std/c++/stdio_streambuf'
p888
g866
g870
tp889
sS'udatamem.c'
p890
(g796
g885
g532
tp891
sS'sched.h'
p892
(S'c:/marmalade/5.2/s3e/h/std/sched.h'
p893
g881
g870
tp894
sS'cassert'
p895
(S'c:/marmalade/5.2/s3e/h/std/c++/cassert'
p896
g866
g870
tp897
sS'grp.h'
p898
(S'c:/marmalade/5.2/s3e/h/std/grp.h'
p899
g881
g870
tp900
sS'istream'
p901
(S'c:/marmalade/5.2/s3e/h/std/c++/istream'
p902
g866
g870
tp903
sS'uniset.cpp'
p904
(g619
g885
g532
tp905
sS'iostream.h'
p906
(S'c:/marmalade/5.2/s3e/h/std/c++/iostream.h'
p907
g866
g870
tp908
sS'punycode.c'
p909
(g565
g885
g532
tp910
sS'string'
p911
(S'c:/marmalade/5.2/s3e/h/std/c++/string'
p912
g866
g870
tp913
sS'uobject.cpp'
p914
(g557
g885
g532
tp915
sS'ucnvsel.cpp'
p916
(g533
g885
g532
tp917
sS'iomanip'
p918
(S'c:/marmalade/5.2/s3e/h/std/c++/iomanip'
p919
g866
g870
tp920
sS'assert.h'
p921
(S'c:/marmalade/5.2/s3e/h/std/assert.h'
p922
g881
g870
tp923
sS'dir.h'
p924
(S'c:/marmalade/5.2/s3e/h/std/sys/dir.h'
p925
(lp926
g867
aS'stdc headers'
p927
aS'sys'
p928
ag870
tp929
sS'ubidiwrt.c'
p930
(g842
g885
g532
tp931
sS'locale.h'
p932
(S'c:/marmalade/5.2/s3e/h/std/locale.h'
p933
g881
g870
tp934
sS'vector'
p935
(S'c:/marmalade/5.2/s3e/h/std/c++/vector'
p936
g866
g870
tp937
sS'streambuf.h'
p938
(S'c:/marmalade/5.2/s3e/h/std/c++/streambuf.h'
p939
g866
g870
tp940
sS's3eCompass.h'
p941
(S'c:/marmalade/5.2/s3e/h/s3eCompass.h'
p942
g877
g870
tp943
sS'climits'
p944
(S'c:/marmalade/5.2/s3e/h/std/c++/climits'
p945
g866
g870
tp946
sS'ucol_swp.cpp'
p947
(g754
g885
g532
tp948
sS'rbbinode.cpp'
p949
(g589
g885
g532
tp950
sS's3eVibra.h'
p951
(S'c:/marmalade/5.2/s3e/h/s3eVibra.h'
p952
g877
g870
tp953
sS'fnmatch.h'
p954
(S'c:/marmalade/5.2/s3e/h/std/fnmatch.h'
p955
g881
g870
tp956
sS's3eAudio.h'
p957
(S'c:/marmalade/5.2/s3e/h/s3eAudio.h'
p958
g877
g870
tp959
sS'uloc_tag.c'
p960
(g822
g885
g532
tp961
sS'ucnv_u32.c'
p962
(g621
g885
g532
tp963
sS's3eSurface.h'
p964
(S'c:/marmalade/5.2/s3e/h/s3eSurface.h'
p965
g877
g870
tp966
sS'new'
p967
(S'c:/marmalade/5.2/s3e/h/std/c++/new'
p968
g866
g870
tp969
sS's3eWindow.h'
p970
(S'c:/marmalade/5.2/s3e/h/ext/s3eWindow.h'
p971
(lp972
g867
aS'Extensions'
p973
ag870
tp974
sS's3eOSExec.h'
p975
(S'c:/marmalade/5.2/s3e/h/ext/s3eOSExec.h'
p976
g972
g870
tp977
sS'wctype.h'
p978
(S'c:/marmalade/5.2/s3e/h/std/wctype.h'
p979
g881
g870
tp980
sS'gl2platform.h'
p981
(S'c:/marmalade/5.2/s3e/h/GLES2/gl2platform.h'
p982
(lp983
g867
aS'GL'
p984
aS'GLES 2.0'
p985
ag870
tp986
sS'queue'
p987
(S'c:/marmalade/5.2/s3e/h/std/c++/queue'
p988
g866
g870
tp989
sS'uinvchar.c'
p990
(g633
g885
g532
tp991
sS'loclikely.cpp'
p992
(g535
g885
g532
tp993
sS'ucnv_u16.c'
p994
(g702
g885
g532
tp995
sS'ucnv_ct.c'
p996
(g615
g885
g532
tp997
sS's3eDevice.h'
p998
(S'c:/marmalade/5.2/s3e/h/s3eDevice.h'
p999
g877
g870
tp1000
sS'malloc.h'
p1001
(S'c:/marmalade/5.2/s3e/h/std/malloc.h'
p1002
g881
g870
tp1003
sS'stdarg.h'
p1004
(S'c:/marmalade/5.2/s3e/h/std/stdarg.h'
p1005
g881
g870
tp1006
sS'endian.h'
p1007
(S'c:/marmalade/5.2/s3e/h/std/endian.h'
p1008
g881
g870
tp1009
sS'ucnv_u7.c'
p1010
(g848
g885
g532
tp1011
sS'icuplug.c'
p1012
(g734
g885
g532
tp1013
sS'unames.c'
p1014
(g810
g885
g532
tp1015
sS'fstream'
p1016
(S'c:/marmalade/5.2/s3e/h/std/c++/fstream'
p1017
g866
g870
tp1018
sS's3eCamera.h'
p1019
(S'c:/marmalade/5.2/s3e/h/s3eCamera.h'
p1020
g877
g870
tp1021
sS'brkeng.cpp'
p1022
(g647
g885
g532
tp1023
sS'memory'
p1024
(S'c:/marmalade/5.2/s3e/h/std/c++/memory'
p1025
g866
g870
tp1026
sS'egl.h'
p1027
(S'c:/marmalade/5.2/s3e/h/EGL/egl.h'
p1028
(lp1029
g867
aS'GL'
p1030
aS'EGL'
p1031
ag870
tp1032
sS'egl_1.h'
p1033
(S'c:/marmalade/5.2/s3e/h/GLES/egl.h'
p1034
(lp1035
g867
aS'GL'
p1036
aS'GLES 1.x'
p1037
ag870
tp1038
sS'utrie2_builder.c'
p1039
(g830
g885
g532
tp1040
sS'deque'
p1041
(S'c:/marmalade/5.2/s3e/h/std/c++/deque'
p1042
g866
g870
tp1043
sS'ucnv_ext.c'
p1044
(g611
g885
g532
tp1045
sS'cwchar'
p1046
(S'c:/marmalade/5.2/s3e/h/std/c++/cwchar'
p1047
g866
g870
tp1048
sS'ustrfmt.c'
p1049
(g651
g885
g532
tp1050
sS'csignal'
p1051
(S'c:/marmalade/5.2/s3e/h/std/c++/csignal'
p1052
g866
g870
tp1053
sS'pthread_types.h'
p1054
(S'c:/marmalade/5.2/s3e/h/std/pthread_types.h'
p1055
g881
g870
tp1056
sS'propsvec.c'
p1057
(g591
g885
g532
tp1058
sS'getopt.h'
p1059
(S'c:/marmalade/5.2/s3e/h/std/getopt.h'
p1060
g881
g870
tp1061
sS'times.h'
p1062
(S'c:/marmalade/5.2/s3e/h/std/sys/times.h'
p1063
g926
g870
tp1064
sS'uresbund.c'
p1065
(g694
g885
g532
tp1066
sS'rbbirb.cpp'
p1067
(g662
g885
g532
tp1068
sS'unistd.h'
p1069
(S'c:/marmalade/5.2/s3e/h/std/unistd.h'
p1070
g881
g870
tp1071
sS'utypes.c'
p1072
(g710
g885
g532
tp1073
sS'cmemory.c'
p1074
(g812
g885
g532
tp1075
sS's3eCompression.h'
p1076
(S'c:/marmalade/5.2/s3e/h/s3eCompression.h'
p1077
g877
g870
tp1078
sS'langinfo.h'
p1079
(S'c:/marmalade/5.2/s3e/h/std/langinfo.h'
p1080
g881
g870
tp1081
sS's3edebugHeap.h'
p1082
(S'c:/marmalade/5.2/s3e/h/ext/s3edebugHeap.h'
p1083
g972
g870
tp1084
sS'AirplayVersion.h'
p1085
(S'c:/marmalade/5.2/s3e/h/AirplayVersion.h'
p1086
g877
g870
tp1087
sS'patternprops.cpp'
p1088
(g635
g885
g532
tp1089
sS'gl2extimg.h'
p1090
(S'c:/marmalade/5.2/s3e/h/GLES2/gl2extimg.h'
p1091
g983
g870
tp1092
sS'syslog.h'
p1093
(S'c:/marmalade/5.2/s3e/h/std/syslog.h'
p1094
g881
g870
tp1095
sS'uvector.cpp'
p1096
(g764
g885
g532
tp1097
sS'hash_map'
p1098
(S'c:/marmalade/5.2/s3e/h/std/c++/hash_map'
p1099
g866
g870
tp1100
sS's3e.mkf'
p1101
(S'c:/marmalade/5.2/s3e/s3e.mkf'
p1102
g877
(dp1103
tp1104
sS's3eOSReadString.h'
p1105
(S'c:/marmalade/5.2/s3e/h/ext/s3eOSReadString.h'
p1106
g972
g870
tp1107
sS'usc_impl.c'
p1108
(g760
g885
g532
tp1109
sS'map'
p1110
(S'c:/marmalade/5.2/s3e/h/std/c++/map'
p1111
g866
g870
tp1112
sS'ubidi.c'
p1113
(g724
g885
g532
tp1114
sS'msl_string.h'
p1115
(S'c:/marmalade/5.2/s3e/h/std/c++/msl_string.h'
p1116
g866
g870
tp1117
sS'ucnv_cb.c'
p1118
(g802
g885
g532
tp1119
sS'select.h'
p1120
(S'c:/marmalade/5.2/s3e/h/std/sys/select.h'
p1121
g926
g870
tp1122
sS'triedict.cpp'
p1123
(g846
g885
g532
tp1124
sS'libgen.h'
p1125
(S'c:/marmalade/5.2/s3e/h/std/libgen.h'
p1126
g881
g870
tp1127
sS'signal.h'
p1128
(S'c:/marmalade/5.2/s3e/h/std/signal.h'
p1129
g881
g870
tp1130
sS'sigcontext.h'
p1131
(S'c:/marmalade/5.2/s3e/h/std/sigcontext.h'
p1132
g881
g870
tp1133
sS'errorcode.cpp'
p1134
(g748
g885
g532
tp1135
sS'ustrcase.c'
p1136
(g768
g885
g532
tp1137
sS's3eClipboard.h'
p1138
(S'c:/marmalade/5.2/s3e/h/s3eClipboard.h'
p1139
g877
g870
tp1140
sS's3eDebug.h'
p1141
(S'c:/marmalade/5.2/s3e/h/s3eDebug.h'
p1142
g877
g870
tp1143
sS'socket.h'
p1144
(S'c:/marmalade/5.2/s3e/h/std/sys/socket.h'
p1145
g926
g870
tp1146
sS'glext.h'
p1147
(S'c:/marmalade/5.2/s3e/h/GLES/glext.h'
p1148
g1035
g870
tp1149
sS'netdb.h'
p1150
(S'c:/marmalade/5.2/s3e/h/std/netdb.h'
p1151
g881
g870
tp1152
sS'cwchar.c'
p1153
(g561
g885
g532
tp1154
sS'typeinfo.h'
p1155
(S'c:/marmalade/5.2/s3e/h/std/c++/typeinfo.h'
p1156
g866
g870
tp1157
sS'typeinfo'
p1158
(S'c:/marmalade/5.2/s3e/h/std/c++/typeinfo'
p1159
g866
g870
tp1160
sS'utrace.c'
p1161
(g780
g885
g532
tp1162
sS's3ePointer.h'
p1163
(S'c:/marmalade/5.2/s3e/h/s3ePointer.h'
p1164
g877
g870
tp1165
sS'fstream.h'
p1166
(S'c:/marmalade/5.2/s3e/h/std/c++/fstream.h'
p1167
g866
g870
tp1168
sS'ucharstrie.cpp'
p1169
(g698
g885
g532
tp1170
sS's3eGL.h'
p1171
(S'c:/marmalade/5.2/s3e/h/s3eGL.h'
p1172
g877
g870
tp1173
sS'uiter.cpp'
p1174
(g573
g885
g532
tp1175
sS'resbund.cpp'
p1176
(g587
g885
g532
tp1177
sS'appendable.cpp'
p1178
(g666
g885
g532
tp1179
sS'unistr_props.cpp'
p1180
(g631
g885
g532
tp1181
sS'umapfile.c'
p1182
(g778
g885
g532
tp1183
sS'ucnvdisp.c'
p1184
(g672
g885
g532
tp1185
sS'ucat.c'
p1186
(g784
g885
g532
tp1187
sS'normlzr.cpp'
p1188
(g613
g885
g532
tp1189
sS'valarray'
p1190
(S'c:/marmalade/5.2/s3e/h/std/c++/valarray'
p1191
g866
g870
tp1192
sS'iosfwd'
p1193
(S'c:/marmalade/5.2/s3e/h/std/c++/iosfwd'
p1194
g866
g870
tp1195
sS'gl2.h'
p1196
(S'c:/marmalade/5.2/s3e/h/GLES2/gl2.h'
p1197
g983
g870
tp1198
sS'bytestream.cpp'
p1199
(g684
g885
g532
tp1200
sS'stdiostream.h'
p1201
(S'c:/marmalade/5.2/s3e/h/std/c++/stdiostream.h'
p1202
g866
g870
tp1203
sS'utf_impl.c'
p1204
(g563
g885
g532
tp1205
sS'mem.h'
p1206
(S'c:/marmalade/5.2/s3e/h/std/c++/mem.h'
p1207
g866
g870
tp1208
sS'slist'
p1209
(S'c:/marmalade/5.2/s3e/h/std/c++/slist'
p1210
g866
g870
tp1211
sS'list'
p1212
(S'c:/marmalade/5.2/s3e/h/std/c++/list'
p1213
g866
g870
tp1214
sS'locavailable.cpp'
p1215
(g686
g885
g532
tp1216
sS'servslkf.cpp'
p1217
(g637
g885
g532
tp1218
sS's3e.config.txt'
p1219
(S'c:/marmalade/5.2/s3e/s3e.config.txt'
p1220
g877
g870
tp1221
sS'numeric'
p1222
(S'c:/marmalade/5.2/s3e/h/std/c++/numeric'
p1223
g866
g870
tp1224
sS'utime.h'
p1225
(S'c:/marmalade/5.2/s3e/h/std/utime.h'
p1226
g881
g870
tp1227
sS'locmap.c'
p1228
(g609
g885
g532
tp1229
sS's3eImagePicker.h'
p1230
(S'c:/marmalade/5.2/s3e/h/ext/s3eImagePicker.h'
p1231
g972
g870
tp1232
sS'stdlib.h'
p1233
(S'c:/marmalade/5.2/s3e/h/std/stdlib.h'
p1234
g881
g870
tp1235
sS'iostream'
p1236
(S'c:/marmalade/5.2/s3e/h/std/c++/iostream'
p1237
g866
g870
tp1238
sS'stddef.h'
p1239
(S'c:/marmalade/5.2/s3e/h/std/stddef.h'
p1240
g881
g870
tp1241
sS'uprops.cpp'
p1242
(g718
g885
g532
tp1243
sS'setjmp_win32.h'
p1244
(S'c:/marmalade/5.2/s3e/h/std/setjmp_win32.h'
p1245
g881
g870
tp1246
sS'uset_props.cpp'
p1247
(g800
g885
g532
tp1248
sS'ucnv_set.c'
p1249
(g649
g885
g532
tp1250
sS'wchar.h'
p1251
(S'c:/marmalade/5.2/s3e/h/std/wchar.h'
p1252
g881
g870
tp1253
sS's3eCameraCapture.h'
p1254
(S'c:/marmalade/5.2/s3e/h/ext/s3eCameraCapture.h'
p1255
g972
g870
tp1256
sS'eglext.h'
p1257
(S'c:/marmalade/5.2/s3e/h/EGL/eglext.h'
p1258
g1029
g870
tp1259
sS'bytestriebuilder.cpp'
p1260
(g832
g885
g532
tp1261
sS'unistr.cpp'
p1262
(g714
g885
g532
tp1263
sS'unorm_it.c'
p1264
(g680
g885
g532
tp1265
sS'strstream.h'
p1266
(S'c:/marmalade/5.2/s3e/h/std/c++/strstream.h'
p1267
g866
g870
tp1268
sS'brkiter.cpp'
p1269
(g732
g885
g532
tp1270
sS'uchar.c'
p1271
(g530
g885
g532
tp1272
sS'file.h'
p1273
(S'c:/marmalade/5.2/s3e/h/std/sys/file.h'
p1274
g926
g870
tp1275
sS'cstring'
p1276
(S'c:/marmalade/5.2/s3e/h/std/c++/cstring'
p1277
g866
g870
tp1278
sS'locale'
p1279
(S'c:/marmalade/5.2/s3e/h/std/c++/locale'
p1280
g866
g870
tp1281
sS's3eSMS.h'
p1282
(S'c:/marmalade/5.2/s3e/h/ext/s3eSMS.h'
p1283
g972
g870
tp1284
sS'uenum.c'
p1285
(g788
g885
g532
tp1286
sS'limits.h'
p1287
(S'c:/marmalade/5.2/s3e/h/std/limits.h'
p1288
g881
g870
tp1289
sS'usprep.cpp'
p1290
(g856
g885
g532
tp1291
sS'parsepos.cpp'
p1292
(g569
g885
g532
tp1293
sS'ubrk.cpp'
p1294
(g567
g885
g532
tp1295
sS'charstr.cpp'
p1296
(g824
g885
g532
tp1297
sS'uts46.cpp'
p1298
(g818
g885
g532
tp1299
sS'uhash_us.cpp'
p1300
(g599
g885
g532
tp1301
sS'util_props.cpp'
p1302
(g740
g885
g532
tp1303
sS's3eSocket.h'
p1304
(S'c:/marmalade/5.2/s3e/h/s3eSocket.h'
p1305
g877
g870
tp1306
sS'ipc.h'
p1307
(S'c:/marmalade/5.2/s3e/h/std/sys/ipc.h'
p1308
g926
g870
tp1309
sS'poll_1.h'
p1310
(S'c:/marmalade/5.2/s3e/h/std/sys/poll.h'
p1311
g926
g870
tp1312
sS's3eThread.h'
p1313
(S'c:/marmalade/5.2/s3e/h/s3eThread.h'
p1314
g877
g870
tp1315
sS'ucontext.h'
p1316
(S'c:/marmalade/5.2/s3e/h/std/ucontext.h'
p1317
g881
g870
tp1318
sS'time.h'
p1319
(S'c:/marmalade/5.2/s3e/h/std/time.h'
p1320
g881
g870
tp1321
sS'ustr_wcs.c'
p1322
(g820
g885
g532
tp1323
sS's3eSoundRecord.h'
p1324
(S'c:/marmalade/5.2/s3e/h/s3eSoundRecord.h'
p1325
g877
g870
tp1326
sS'utrie2.cpp'
p1327
(g579
g885
g532
tp1328
sS'rbbisetb.cpp'
p1329
(g607
g885
g532
tp1330
sS's3eVersion.h'
p1331
(S'c:/marmalade/5.2/s3e/h/s3eVersion.h'
p1332
g877
g870
tp1333
sS'ucmndata.c'
p1334
(g854
g885
g532
tp1335
sS'ucase.c'
p1336
(g581
g885
g532
tp1337
sS'ustack.cpp'
p1338
(g744
g885
g532
tp1339
sS's3eTypes.h'
p1340
(S'c:/marmalade/5.2/s3e/h/s3eTypes.h'
p1341
g877
g870
tp1342
sS'signal_2.h'
p1343
(S'c:/marmalade/5.2/s3e/h/std/c++/signal.h'
p1344
g866
g870
tp1345
sS'ushape.c'
p1346
(g571
g885
g532
tp1347
sS'termios.h'
p1348
(S'c:/marmalade/5.2/s3e/h/std/termios.h'
p1349
g881
g870
tp1350
sS'putil.c'
p1351
(g706
g885
g532
tp1352
sS'bmpset.cpp'
p1353
(g585
g885
g532
tp1354
sS'cstdlib'
p1355
(S'c:/marmalade/5.2/s3e/h/std/c++/cstdlib'
p1356
g866
g870
tp1357
sS's3eLocation.h'
p1358
(S'c:/marmalade/5.2/s3e/h/s3eLocation.h'
p1359
g877
g870
tp1360
sS'pwd.h'
p1361
(S'c:/marmalade/5.2/s3e/h/std/pwd.h'
p1362
g881
g870
tp1363
sS'bytestrie.cpp'
p1364
(g742
g885
g532
tp1365
sS'ucnv_lmb.c'
p1366
(g858
g885
g532
tp1367
sS'serv.cpp'
p1368
(g674
g885
g532
tp1369
sS's3eHash.h'
p1370
(S'c:/marmalade/5.2/s3e/h/s3eHash.h'
p1371
g877
g870
tp1372
sS'bytestrieiterator.cpp'
p1373
(g776
g885
g532
tp1374
sS'uvectr64.cpp'
p1375
(g792
g885
g532
tp1376
sS'type_traits.h'
p1377
(S'c:/marmalade/5.2/s3e/h/std/c++/type_traits.h'
p1378
g866
g870
tp1379
sS's3eLibrary.h'
p1380
(S'c:/marmalade/5.2/s3e/h/ext/s3eLibrary.h'
p1381
g972
g870
tp1382
sS'dlfcn.h'
p1383
(S'c:/marmalade/5.2/s3e/h/std/dlfcn.h'
p1384
g881
g870
tp1385
sS'math_rvct.h'
p1386
(S'c:/marmalade/5.2/s3e/h/std/math_rvct.h'
p1387
g881
g870
tp1388
sS'cstring.c'
p1389
(g653
g885
g532
tp1390
sS'util.cpp'
p1391
(g808
g885
g532
tp1392
sS'locbased.cpp'
p1393
(g750
g885
g532
tp1394
sS'unifunct.cpp'
p1395
(g682
g885
g532
tp1396
sS'ures_cnv.c'
p1397
(g595
g885
g532
tp1398
sS'stringtriebuilder.cpp'
p1399
(g762
g885
g532
tp1400
sS'ruleiter.cpp'
p1401
(g696
g885
g532
tp1402
sS'ubidiln.c'
p1403
(g539
g885
g532
tp1404
sS'cstddef'
p1405
(S'c:/marmalade/5.2/s3e/h/std/c++/cstddef'
p1406
g866
g870
tp1407
sS'mman.h'
p1408
(S'c:/marmalade/5.2/s3e/h/std/sys/mman.h'
p1409
g926
g870
tp1410
sS'unistr_case.cpp'
p1411
(g676
g885
g532
tp1412
sS'ucharstriebuilder.cpp'
p1413
(g549
g885
g532
tp1414
sS'utsname.h'
p1415
(S'c:/marmalade/5.2/s3e/h/std/sys/utsname.h'
p1416
g926
g870
tp1417
sS'wait.h'
p1418
(S'c:/marmalade/5.2/s3e/h/std/sys/wait.h'
p1419
g926
g870
tp1420
sS'servlk.cpp'
p1421
(g726
g885
g532
tp1422
sS'udataswp.c'
p1423
(g551
g885
g532
tp1424
sS'param.h'
p1425
(S'c:/marmalade/5.2/s3e/h/std/sys/param.h'
p1426
g926
g870
tp1427
sS'locutil.cpp'
p1428
(g641
g885
g532
tp1429
sS'rbbitblb.cpp'
p1430
(g756
g885
g532
tp1431
sS'ostream'
p1432
(S'c:/marmalade/5.2/s3e/h/std/c++/ostream'
p1433
g866
g870
tp1434
sS'cwctype'
p1435
(S'c:/marmalade/5.2/s3e/h/std/c++/cwctype'
p1436
g866
g870
tp1437
sS'uset.cpp'
p1438
(g728
g885
g532
tp1439
sS'set'
p1440
(S'c:/marmalade/5.2/s3e/h/std/c++/set'
p1441
g866
g870
tp1442
sS'ucnv_u8.c'
p1443
(g629
g885
g532
tp1444
sS'servlkf.cpp'
p1445
(g658
g885
g532
tp1446
sS'cstdio'
p1447
(S'c:/marmalade/5.2/s3e/h/std/c++/cstdio'
p1448
g866
g870
tp1449
sS'ustr_cnv.c'
p1450
(g716
g885
g532
tp1451
sS'inttypes.h'
p1452
(S'c:/marmalade/5.2/s3e/h/std/inttypes.h'
p1453
g881
g870
tp1454
sS'ucnvlat1.c'
p1455
(g806
g885
g532
tp1456
sS'dirent.h'
p1457
(S'c:/marmalade/5.2/s3e/h/std/dirent.h'
p1458
g881
g870
tp1459
sS'glplatform.h'
p1460
(S'c:/marmalade/5.2/s3e/h/GLES/glplatform.h'
p1461
g1035
g870
tp1462
sS'icudataver.c'
p1463
(g625
g885
g532
tp1464
sS'bitset'
p1465
(S'c:/marmalade/5.2/s3e/h/std/c++/bitset'
p1466
g866
g870
tp1467
sS'alloca.h'
p1468
(S'c:/marmalade/5.2/s3e/h/std/alloca.h'
p1469
g881
g870
tp1470
sS'uhash.c'
p1471
(g804
g885
g532
tp1472
sS'limits'
p1473
(S'c:/marmalade/5.2/s3e/h/std/c++/limits'
p1474
g866
g870
tp1475
sS'locresdata.cpp'
p1476
(g583
g885
g532
tp1477
sS's3eContacts.h'
p1478
(S'c:/marmalade/5.2/s3e/h/s3eContacts.h'
p1479
g877
g870
tp1480
sS's3eLicense.h'
p1481
(S'c:/marmalade/5.2/s3e/h/s3eLicense.h'
p1482
g877
g870
tp1483
sS'rbbi.cpp'
p1484
(g736
g885
g532
tp1485
sS's3eTimer.h'
p1486
(S'c:/marmalade/5.2/s3e/h/s3eTimer.h'
p1487
g877
g870
tp1488
sS'streambuf'
p1489
(S'c:/marmalade/5.2/s3e/h/std/c++/streambuf'
p1490
g866
g870
tp1491
sS'rbbidata.cpp'
p1492
(g603
g885
g532
tp1493
sS'cstdarg'
p1494
(S'c:/marmalade/5.2/s3e/h/std/c++/cstdarg'
p1495
g866
g870
tp1496
sS'ustrenum.cpp'
p1497
(g688
g885
g532
tp1498
sS'gl2ext.h'
p1499
(S'c:/marmalade/5.2/s3e/h/GLES2/gl2ext.h'
p1500
g983
g870
tp1501
sS's3eSound.h'
p1502
(S'c:/marmalade/5.2/s3e/h/s3eSound.h'
p1503
g877
g870
tp1504
sS's3eIOSBackgroundAudio.h'
p1505
(S'c:/marmalade/5.2/s3e/h/ext/s3eIOSBackgroundAudio.h'
p1506
g972
g870
tp1507
sS'exception.h'
p1508
(S'c:/marmalade/5.2/s3e/h/std/c++/exception.h'
p1509
g866
g870
tp1510
sS'unifilt.cpp'
p1511
(g664
g885
g532
tp1512
sS'dtintrv.cpp'
p1513
(g645
g885
g532
tp1514
sS'unorm.cpp'
p1515
(g752
g885
g532
tp1516
sS'umutex.c'
p1517
(g834
g885
g532
tp1518
sS'poll.h'
p1519
(S'c:/marmalade/5.2/s3e/h/std/poll.h'
p1520
g881
g870
tp1521
sS'ucharstrieiterator.cpp'
p1522
(g790
g885
g532
tp1523
sS'types.h'
p1524
(S'c:/marmalade/5.2/s3e/h/std/sys/types.h'
p1525
g926
g870
tp1526
sS'ifaddrs.h'
p1527
(S'c:/marmalade/5.2/s3e/h/std/ifaddrs.h'
p1528
g881
g870
tp1529
sS'messagepattern.cpp'
p1530
(g766
g885
g532
tp1531
sS'strstream'
p1532
(S'c:/marmalade/5.2/s3e/h/std/c++/strstream'
p1533
g866
g870
tp1534
sS'uinit.c'
p1535
(g826
g885
g532
tp1536
sS'exception'
p1537
(S'c:/marmalade/5.2/s3e/h/std/c++/exception'
p1538
g866
g870
tp1539
sS'rlocks.h'
p1540
(S'c:/marmalade/5.2/s3e/h/std/c++/rlocks.h'
p1541
g866
g870
tp1542
sS'ioctl.h'
p1543
(S'c:/marmalade/5.2/s3e/h/std/sys/ioctl.h'
p1544
g926
g870
tp1545
sS'rope'
p1546
(S'c:/marmalade/5.2/s3e/h/std/c++/rope'
p1547
g866
g870
tp1548
sS'locdispnames.cpp'
p1549
(g836
g885
g532
tp1550
sS'uarrsort.c'
p1551
(g555
g885
g532
tp1552
sS'iconv.h'
p1553
(S'c:/marmalade/5.2/s3e/h/std/iconv.h'
p1554
g881
g870
tp1555
sS'sendfile.h'
p1556
(S'c:/marmalade/5.2/s3e/h/std/sys/sendfile.h'
p1557
g926
g870
tp1558
sS'cctype'
p1559
(S'c:/marmalade/5.2/s3e/h/std/c++/cctype'
p1560
g866
g870
tp1561
sS'udata.cpp'
p1562
(g844
g885
g532
tp1563
sS'ucln_cmn.c'
p1564
(g617
g885
g532
tp1565
sS's3eConfig.h'
p1566
(S'c:/marmalade/5.2/s3e/h/s3eConfig.h'
p1567
g877
g870
tp1568
sS'umath.c'
p1569
(g860
g885
g532
tp1570
sS'stat.h'
p1571
(S'c:/marmalade/5.2/s3e/h/std/sys/stat.h'
p1572
g926
g870
tp1573
sS'byteswap.h'
p1574
(S'c:/marmalade/5.2/s3e/h/std/byteswap.h'
p1575
g881
g870
tp1576
sS'stringpiece.cpp'
p1577
(g692
g885
g532
tp1578
sS'pthread_1.h'
p1579
(S'c:/marmalade/5.2/s3e/h/std/c++/pthread.h'
p1580
g866
g870
tp1581
sS'complex'
p1582
(S'c:/marmalade/5.2/s3e/h/std/c++/complex'
p1583
g866
g870
tp1584
sS'uscript.c'
p1585
(g575
g885
g532
tp1586
sS's3e.icf'
p1587
(S'c:/marmalade/5.2/s3e/s3e.icf'
p1588
g877
g870
tp1589
sS'time_1.h'
p1590
(S'c:/marmalade/5.2/s3e/h/std/sys/time.h'
p1591
g926
g870
tp1592
sS'sem.h'
p1593
(S'c:/marmalade/5.2/s3e/h/std/sys/sem.h'
p1594
g926
g870
tp1595
sS'stdio.h'
p1596
(S'c:/marmalade/5.2/s3e/h/std/stdio.h'
p1597
g881
g870
tp1598
sS'ucnv_io.c'
p1599
(g730
g885
g532
tp1600
sS'ios'
p1601
(S'c:/marmalade/5.2/s3e/h/std/c++/ios'
p1602
g866
g870
tp1603
sS'ucnv_cnv.c'
p1604
(g758
g885
g532
tp1605
sS'rbbistbl.cpp'
p1606
(g704
g885
g532
tp1607
sS'stack'
p1608
(S'c:/marmalade/5.2/s3e/h/std/c++/stack'
p1609
g866
g870
tp1610
sS'new.h'
p1611
(S'c:/marmalade/5.2/s3e/h/std/c++/new.h'
p1612
g866
g870
tp1613
sS's3eEMail.h'
p1614
(S'c:/marmalade/5.2/s3e/h/ext/s3eEMail.h'
p1615
g972
g870
tp1616
sS's3eVideo.h'
p1617
(S'c:/marmalade/5.2/s3e/h/s3eVideo.h'
p1618
g877
g870
tp1619
sS'uidna.cpp'
p1620
(g601
g885
g532
tp1621
sS'ubidi_props.c'
p1622
(g838
g885
g532
tp1623
sS'unistr_cnv.cpp'
p1624
(g782
g885
g532
tp1625
sS'servls.cpp'
p1626
(g738
g885
g532
tp1627
sS'cfloat'
p1628
(S'c:/marmalade/5.2/s3e/h/std/c++/cfloat'
p1629
g866
g870
tp1630
sS'caniter.cpp'
p1631
(g577
g885
g532
tp1632
sS's3eAccelerometer.h'
p1633
(S'c:/marmalade/5.2/s3e/h/s3eAccelerometer.h'
p1634
g877
g870
tp1635
sS'resbund_cnv.cpp'
p1636
(g547
g885
g532
tp1637
sS'unormcmp.cpp'
p1638
(g643
g885
g532
tp1639
sS'setjmp.h'
p1640
(S'c:/marmalade/5.2/s3e/h/std/setjmp.h'
p1641
g881
g870
tp1642
sS'wintz.c'
p1643
(g816
g885
g532
tp1644
sS'ucnvscsu.c'
p1645
(g537
g885
g532
tp1646
sS'istream.h'
p1647
(S'c:/marmalade/5.2/s3e/h/std/c++/istream.h'
p1648
g866
g870
tp1649
sS'ucnv2022.c'
p1650
(g668
g885
g532
tp1651
sS'stdint.h'
p1652
(S'c:/marmalade/5.2/s3e/h/std/stdint.h'
p1653
g881
g870
tp1654
sS'mutex.cpp'
p1655
(g720
g885
g532
tp1656
sS'semaphore.h'
p1657
(S'c:/marmalade/5.2/s3e/h/std/semaphore.h'
p1658
g881
g870
tp1659
sS'uloc.c'
p1660
(g798
g885
g532
tp1661
sS'ctime'
p1662
(S'c:/marmalade/5.2/s3e/h/std/c++/ctime'
p1663
g866
g870
tp1664
sS'sstream'
p1665
(S'c:/marmalade/5.2/s3e/h/std/c++/sstream'
p1666
g866
g870
tp1667
sS'ucnvmbcs.c'
p1668
(g559
g885
g532
tp1669
sS'servnotf.cpp'
p1670
(g623
g885
g532
tp1671
sS'utrie.c'
p1672
(g708
g885
g532
tp1673
sS'prctl.h'
p1674
(S'c:/marmalade/5.2/s3e/h/std/sys/prctl.h'
p1675
g926
g870
tp1676
sS'normalizer2.cpp'
p1677
(g840
g885
g532
tp1678
sS'propname.cpp'
p1679
(g678
g885
g532
tp1680
sS'strings.h'
p1681
(S'c:/marmalade/5.2/s3e/h/std/strings.h'
p1682
g881
g870
tp1683
sS's3eExt.h'
p1684
(S'c:/marmalade/5.2/s3e/h/s3eExt.h'
p1685
g877
g870
tp1686
sS'chariter.cpp'
p1687
(g545
g885
g532
tp1688
sS's3eMetrics.h'
p1689
(S'c:/marmalade/5.2/s3e/h/ext/s3eMetrics.h'
p1690
g972
g870
tp1691
sS'unisetspan.cpp'
p1692
(g553
g885
g532
tp1693
sS'ustring.c'
p1694
(g770
g885
g532
tp1695
sS'servrbf.cpp'
p1696
(g814
g885
g532
tp1697
sS'glob.h'
p1698
(S'c:/marmalade/5.2/s3e/h/std/glob.h'
p1699
g881
g870
tp1700
sS'ulist.c'
p1701
(g660
g885
g532
tp1702
sS's3eSecureStorage.h'
p1703
(S'c:/marmalade/5.2/s3e/h/s3eSecureStorage.h'
p1704
g877
g870
tp1705
sS'string.h'
p1706
(S'c:/marmalade/5.2/s3e/h/std/string.h'
p1707
g881
g870
tp1708
sS'ucasemap.c'
p1709
(g597
g885
g532
tp1710
sS'float.h'
p1711
(S'c:/marmalade/5.2/s3e/h/std/float.h'
p1712
g881
g870
tp1713
sS'iomanip.h'
p1714
(S'c:/marmalade/5.2/s3e/h/std/c++/iomanip.h'
p1715
g866
g870
tp1716
sS'ucnvhz.c'
p1717
(g722
g885
g532
tp1718
sS'ucnvisci.c'
p1719
(g746
g885
g532
tp1720
sS'ucnv.c'
p1721
(g700
g885
g532
tp1722
sS'ctype.h'
p1723
(S'c:/marmalade/5.2/s3e/h/std/ctype.h'
p1724
g881
g870
tp1725
sS'signal_1.h'
p1726
(S'c:/marmalade/5.2/s3e/h/std/sys/signal.h'
p1727
g926
g870
tp1728
sS'normalizer2impl.cpp'
p1729
(g593
g885
g532
tp1730
sS'functional'
p1731
(S'c:/marmalade/5.2/s3e/h/std/c++/functional'
p1732
g866
g870
tp1733
sS'shm.h'
p1734
(S'c:/marmalade/5.2/s3e/h/std/sys/shm.h'
p1735
g926
g870
tp1736
sS'un.h'
p1737
(S'c:/marmalade/5.2/s3e/h/std/sys/un.h'
p1738
g926
g870
tp1739
sS'utility'
p1740
(S'c:/marmalade/5.2/s3e/h/std/c++/utility'
p1741
g866
g870
tp1742
sS'ucnv_bld.c'
p1743
(g690
g885
g532
tp1744
sS'uresdata.c'
p1745
(g543
g885
g532
tp1746
sS's3eCrypto.h'
p1747
(S'c:/marmalade/5.2/s3e/h/s3eCrypto.h'
p1748
g877
g870
tp1749
sS's3eKeyboard.h'
p1750
(S'c:/marmalade/5.2/s3e/h/s3eKeyboard.h'
p1751
g877
g870
tp1752
sS'fcntl.h'
p1753
(S'c:/marmalade/5.2/s3e/h/std/fcntl.h'
p1754
g881
g870
tp1755
sS'usetiter.cpp'
p1756
(g772
g885
g532
tp1757
sS'memory.h'
p1758
(S'c:/marmalade/5.2/s3e/h/std/memory.h'
p1759
g881
g870
tp1760
sS'common_build.mkf'
p1761
(g655
g885
g657
tp1762
sS'pthread.h'
p1763
(S'c:/marmalade/5.2/s3e/h/std/pthread.h'
p1764
g881
g870
tp1765
sS'uvectr32.cpp'
p1766
(g605
g885
g532
tp1767
sS'ucnvbocu.c'
p1768
(g670
g885
g532
tp1769
sS'ucnv_err.c'
p1770
(g774
g885
g532
tp1771
sS'filterednormalizer2.cpp'
p1772
(g828
g885
g532
tp1773
sS'ostream.h'
p1774
(S'c:/marmalade/5.2/s3e/h/std/c++/ostream.h'
p1775
g866
g870
tp1776
sS'stl_user_config.h'
p1777
(S'c:/marmalade/5.2/s3e/h/std/c++/stl_user_config.h'
p1778
g866
g870
tp1779
sS'gl.h'
p1780
(S'c:/marmalade/5.2/s3e/h/GLES/gl.h'
p1781
g1035
g870
tp1782
sS'ustrtrns.c'
p1783
(g852
g885
g532
tp1784
sS'dictbe.cpp'
p1785
(g627
g885
g532
tp1786
sS'MarmaladeVersion.h'
p1787
(S'c:/marmalade/5.2/s3e/h/MarmaladeVersion.h'
p1788
g877
g870
tp1789
sS'ios.h'
p1790
(S'c:/marmalade/5.2/s3e/h/std/c++/ios.h'
p1791
g866
g870
tp1792
sS'schriter.cpp'
p1793
(g541
g885
g532
tp1794
sS'hash_set'
p1795
(S'c:/marmalade/5.2/s3e/h/std/c++/hash_set'
p1796
g866
g870
tp1797
sS'eglplatform.h'
p1798
(S'c:/marmalade/5.2/s3e/h/EGL/eglplatform.h'
p1799
g1029
g870
tp1800
sS'rbbiscan.cpp'
p1801
(g786
g885
g532
tp1802
sS'cmath'
p1803
(S'c:/marmalade/5.2/s3e/h/std/c++/cmath'
p1804
g866
g870
tp1805
sS'math_gcc.h'
p1806
(S'c:/marmalade/5.2/s3e/h/std/math_gcc.h'
p1807
g881
g870
tp1808
sS's3eMemory.h'
p1809
(S'c:/marmalade/5.2/s3e/h/s3eMemory.h'
p1810
g877
g870
tp1811
sS'uchriter.cpp'
p1812
(g794
g885
g532
tp1813
sS's3eFile.h'
p1814
(S'c:/marmalade/5.2/s3e/h/s3eFile.h'
p1815
g877
g870
tp1816
sS'cerrno'
p1817
(S'c:/marmalade/5.2/s3e/h/std/c++/cerrno'
p1818
g866
g870
tp1819
sS'resource.h'
p1820
(S'c:/marmalade/5.2/s3e/h/std/sys/resource.h'
p1821
g926
g870
tp1822
sS'clocale'
p1823
(S'c:/marmalade/5.2/s3e/h/std/c++/clocale'
p1824
g866
g870
tp1825
sS'utext.cpp'
p1826
(g712
g885
g532
tp1827
sS'csetjmp'
p1828
(S'c:/marmalade/5.2/s3e/h/std/c++/csetjmp'
p1829
g866
g870
tp1830
sS'algorithm'
p1831
(S'c:/marmalade/5.2/s3e/h/std/c++/algorithm'
p1832
g866
g870
tp1833
sS's3eAndroidJNI.h'
p1834
(S'c:/marmalade/5.2/s3e/h/ext/s3eAndroidJNI.h'
p1835
g972
g870
tp1836
sS'stdexcept'
p1837
(S'c:/marmalade/5.2/s3e/h/std/c++/stdexcept'
p1838
g866
g870
tp1839
sS'math.h'
p1840
(S'c:/marmalade/5.2/s3e/h/std/math.h'
p1841
g881
g870
tp1842
sS'stdbool.h'
p1843
(S'c:/marmalade/5.2/s3e/h/std/stdbool.h'
p1844
g881
g870
tp1845
sS'locid.cpp'
p1846
(g639
g885
g532
tp1847
sS'uio.h'
p1848
(S'c:/marmalade/5.2/s3e/h/std/sys/uio.h'
p1849
g926
g870
tp1850
ssS'tests'
p1851
(lp1852
sS'project_name'
p1853
S'common'
p1854
sS'root_file'
p1855
g95
sS'current_root'
p1856
S'C:/Users/will/Documents/UtterSpeech/marmalade/icu/common'
p1857
sS'dependencies'
p1858
(lp1859
sS'include_paths'
p1860
(lp1861
S'c:/users/will/documents/utterspeech/marmalade/icu/common/source'
p1862
aS'c:/users/will/documents/utterspeech/marmalade/icu/i18n/source'
p1863
aS'c:/marmalade/5.2/s3e/h'
p1864
aS'c:/marmalade/5.2/s3e/h/ext'
p1865
aS'c:/marmalade/5.2/s3e/h/std'
p1866
aS'c:/marmalade/5.2/s3e/h/std/c++'
p1867
aS'c:/marmalade/5.2/s3e/h/ext_legacy'
p1868
aS'c:/marmalade/5.2/s3e/h/legacy'
p1869
asS'weak_frameworks'
p1870
(lp1871
sS'extprojects'
p1872
(dp1873
sg276
(dp1874
g270
(lp1875
ssS'macro_types'
p1876
(dp1877
g245
I0
sg247
I0
sg248
I0
sg249
I0
sg250
I0
sg251
I0
sg252
I0
sg253
I0
sg254
I0
sg255
I0
sg257
I0
sg258
I0
sg259
I0
sg261
I01
sg262
I0
ssS'commands'
p1878
(lp1879
sg278
(g523
S'VC10'
p1880
S'X86ARM'
p1881
tp1882
sS'build_libs'
p1883
(dp1884
sS'frameworks'
p1885
(lp1886
sS'extensions'
p1887
(dp1888
sS'target_name_debug'
p1889
g213
(g221
g215
Ntp1890
Rp1891
(dp1892
g225
S'../common'
p1893
sg227
I01
sg228
g229
sg230
I00
sg231
Nsg232
Nsg233
I00
sg30
NsbsS'builders'
p1894
(dp1895
S'.S'
p1896
(dp1897
S'rvct'
p1898
(lp1899
S'.obj'
p1900
aS'echo ARM Assembling(RVCT) ${SOURCE}...'
p1901
aS'c:/marmalade/5.2/s3e\\rvct\\bin\\armasm -o ${TARGET} ${SOURCE}'
p1902
asS'gcc'
p1903
(lp1904
g1900
aS'echo ARM Assembling(GCC) ${SOURCE}...'
p1905
aS'c:/marmalade/5.2/s3e\\gcc\\bin\\arm-none-eabi-gcc -c -o ${TARGET} ${SOURCE}'
p1906
asS'ppu'
p1907
(lp1908
S'.a'
p1909
aS'echo PPU Assembling(SNC) ${SOURCE}...'
p1910
aS'c:/marmalade/5.2/s3e\\rvct\\bin\\armasm -o ${TARGET} ${SOURCE}'
p1911
assS'.s'
p1912
g1897
ssg280
g0
sbtp1913
.