(dp0
S'U_ATTRIBUTE_DEPRECATED'
p1
S' '
p2
sS'IW_PLATFORM_S3E'
p3
NsS'I3D_PLATFORM_S3E'
p4
NsS'NDEBUG'
p5
NsS'S3E_INCLUDE_LEGACY'
p6
NsS'IW_SDK'
p7
NsS'__S3E__'
p8
NsS'_CRT_SECURE_NO_DEPRECATE'
p9
NsS'U_COMMON_IMPLEMENTATION'
p10
NsS'IW_APP_NAME'
p11
S'"common"'
p12
sS'U_STATIC_IMPLEMENTATION'
p13
NsS'I3D_OS_S3E'
p14
NsS'IW_APP_VERSION'
p15
S'"1.0"'
p16
sS'IW_DEBUG'
p17
NsS'IW_MKF_COMMON_BUILD'
p18
Ns.